; Function Attrs: mustprogress nofree norecurse nosync nounwind willreturn memory(argmem: readwrite) uwtable
define dso_local void @ExecHashAccumInstrumentation(ptr noundef captures(none) %0, ptr noundef readonly captures(none) %1) local_unnamed_addr #7 {
  %3 = load i32, ptr %0, align 8
  %4 = load i32, ptr %1, align 8
  %. = tail call i32 @llvm.smax.i32(i32 %3, i32 %4)
  store i32 %., ptr %0, align 8
  %5 = getelementptr inbounds nuw i8, ptr %0, i64 4
  %6 = load i32, ptr %5, align 4
  %7 = getelementptr inbounds nuw i8, ptr %1, i64 8
  %8 = load i32, ptr %7, align 8
  %9 = tail call i32 @llvm.smax.i32(i32 %6, i32 %8)
  store i32 %9, ptr %5, align 4
  %10 = getelementptr inbounds nuw i8, ptr %0, i64 8
  %11 = load i32, ptr %10, align 8
  %12 = getelementptr inbounds nuw i8, ptr %1, i64 64
  %13 = load i32, ptr %12, align 8
  %14 = tail call i32 @llvm.smax.i32(i32 %11, i32 %13)
  store i32 %14, ptr %10, align 8
  %15 = getelementptr inbounds nuw i8, ptr %0, i64 12
  %16 = load i32, ptr %15, align 4
  %17 = getelementptr inbounds nuw i8, ptr %1, i64 72
  %18 = load i32, ptr %17, align 8
  %19 = tail call i32 @llvm.smax.i32(i32 %16, i32 %18)
  store i32 %19, ptr %15, align 4
  %20 = getelementptr inbounds nuw i8, ptr %0, i64 16
  %21 = load i64, ptr %20, align 8
  %22 = getelementptr inbounds nuw i8, ptr %1, i64 144
  %23 = load i64, ptr %22, align 8
  %24 = tail call i64 @llvm.umax.i64(i64 %21, i64 %23)
  store i64 %24, ptr %20, align 8
  ret void
}